target datalayout = "e-m:e-p270:32:32-p271:32:32-p272:64:64-i64:64-i128:128-f80:128-n8:16:32:64-S128"
target triple = "x86_64-pc-linux-gnu"

%struct.Curl_llist_node = type { ptr, ptr, ptr, ptr }
%struct.easy_pollset = type { [5 x i32], i32, [5 x i8] }
%struct.curltime = type { i64, i32 }
%struct.ssl_primary_config = type { ptr, ptr, ptr, ptr, ptr, ptr, ptr, ptr, ptr, ptr, ptr, ptr, ptr, ptr, i8, i32, i8, i8 }
%struct.dynbuf = type { ptr, i64, i64, i64 }
%struct.Curl_llist = type { ptr, ptr, ptr, i64 }
%struct.ip_quadruple = type { [46 x i8], [46 x i8], i32, i32 }
%struct.connectdata = type { %struct.Curl_llist_node, ptr, ptr, i64, ptr, i64, ptr, ptr, %struct.hostname, ptr, ptr, %struct.hostname, %struct.proxy_info, %struct.proxy_info, %struct.ip_quadruple, %struct.ip_quadruple, ptr, ptr, ptr, ptr, ptr, %struct.curltime, %struct.curltime, %struct.curltime, [2 x i32], [2 x ptr], [2 x ptr], [2 x ptr], %struct.anon, %struct.easy_pollset, %struct.ssl_primary_config, %struct.ssl_primary_config, %struct.ConnectBits, ptr, ptr, %struct.curltime, i32, i32, %struct.Curl_llist, i32, i32, %struct.ntlmdata, %struct.ntlmdata, %union.anon.1, ptr, ptr, i16, i32, i32, i32, i32, i16, i16, i8, i8, i8, i8, i8, i8, i8 }
%struct.hostname = type { ptr, ptr, ptr, ptr }
%struct.proxy_info = type { %struct.hostname, i32, i8, ptr, ptr }
%struct.anon = type { [2 x %struct.curltime], i32 }
%struct.ConnectBits = type { i64 }
%struct.ntlmdata = type { i32, [8 x i8], i32, ptr }
%union.anon.1 = type { %struct.ftp_conn }
%struct.ftp_conn = type { %struct.pingpong, ptr, ptr, ptr, ptr, ptr, ptr, ptr, i8, i64, ptr, i64, i32, i32, i32, i32, i32, i16, i8, i8, i8, i8, i8 }
%struct.pingpong = type { i64, i8, ptr, i64, i64, %struct.curltime, i64, %struct.dynbuf, %struct.dynbuf, i64, i64, ptr, ptr }

@Curl_cfree = external global ptr, align 8

; Function Attrs: nounwind uwtable
define hidden void @Curl_conn_free(ptr noundef %0, ptr noundef %1) #0 {
  %3 = alloca ptr, align 8
  %4 = alloca ptr, align 8
  %5 = alloca i64, align 8
  store ptr %0, ptr %3, align 8, !tbaa !3
  store ptr %1, ptr %4, align 8, !tbaa !181
  call void @llvm.lifetime.start.p0(i64 8, ptr %5) #8
  br label %6

6:                                                ; preds = %2
  br label %7

7:                                                ; preds = %6
  br label %8

8:                                                ; preds = %7
  store i64 0, ptr %5, align 8, !tbaa !182
  br label %9

9:                                                ; preds = %17, %8
  %10 = load i64, ptr %5, align 8, !tbaa !182
  %11 = icmp ult i64 %10, 2
  br i1 %11, label %12, label %20

12:                                               ; preds = %9
  %13 = load ptr, ptr %3, align 8, !tbaa !3
  %14 = load ptr, ptr %4, align 8, !tbaa !181
  %15 = load i64, ptr %5, align 8, !tbaa !182
  %16 = trunc i64 %15 to i32
  call void @Curl_conn_cf_discard_all(ptr noundef %13, ptr noundef %14, i32 noundef %16)
  br label %17

17:                                               ; preds = %12
  %18 = load i64, ptr %5, align 8, !tbaa !182
  %19 = add i64 %18, 1
  store i64 %19, ptr %5, align 8, !tbaa !182
  br label %9, !llvm.loop !183

20:                                               ; preds = %9
  %21 = load ptr, ptr %4, align 8, !tbaa !181
  %22 = getelementptr inbounds nuw %struct.connectdata, ptr %21, i32 0, i32 8
  call void @Curl_free_idnconverted_hostname(ptr noundef %22)
  %23 = load ptr, ptr %4, align 8, !tbaa !181
  %24 = getelementptr inbounds nuw %struct.connectdata, ptr %23, i32 0, i32 11
  call void @Curl_free_idnconverted_hostname(ptr noundef %24)
  %25 = load ptr, ptr %4, align 8, !tbaa !181
  %26 = getelementptr inbounds nuw %struct.connectdata, ptr %25, i32 0, i32 13
  %27 = getelementptr inbounds nuw %struct.proxy_info, ptr %26, i32 0, i32 0
  call void @Curl_free_idnconverted_hostname(ptr noundef %27)
  %28 = load ptr, ptr %4, align 8, !tbaa !181
  %29 = getelementptr inbounds nuw %struct.connectdata, ptr %28, i32 0, i32 12
  %30 = getelementptr inbounds nuw %struct.proxy_info, ptr %29, i32 0, i32 0
  call void @Curl_free_idnconverted_hostname(ptr noundef %30)
  br label %31

31:                                               ; preds = %20
  %32 = load ptr, ptr @Curl_cfree, align 8, !tbaa !10
  %33 = load ptr, ptr %4, align 8, !tbaa !181
  %34 = getelementptr inbounds nuw %struct.connectdata, ptr %33, i32 0, i32 13
  %35 = getelementptr inbounds nuw %struct.proxy_info, ptr %34, i32 0, i32 3
  %36 = load ptr, ptr %35, align 8, !tbaa !184
  call void %32(ptr noundef %36)
  %37 = load ptr, ptr %4, align 8, !tbaa !181
  %38 = getelementptr inbounds nuw %struct.connectdata, ptr %37, i32 0, i32 13
  %39 = getelementptr inbounds nuw %struct.proxy_info, ptr %38, i32 0, i32 3
  store ptr null, ptr %39, align 8, !tbaa !184
  br label %40

40:                                               ; preds = %31
  br label %41

41:                                               ; preds = %40
  br label %42

42:                                               ; preds = %41
  %43 = load ptr, ptr @Curl_cfree, align 8, !tbaa !10
  %44 = load ptr, ptr %4, align 8, !tbaa !181
  %45 = getelementptr inbounds nuw %struct.connectdata, ptr %44, i32 0, i32 12
  %46 = getelementptr inbounds nuw %struct.proxy_info, ptr %45, i32 0, i32 3
  %47 = load ptr, ptr %46, align 8, !tbaa !193
  call void %43(ptr noundef %47)
  %48 = load ptr, ptr %4, align 8, !tbaa !181
  %49 = getelementptr inbounds nuw %struct.connectdata, ptr %48, i32 0, i32 12
  %50 = getelementptr inbounds nuw %struct.proxy_info, ptr %49, i32 0, i32 3
  store ptr null, ptr %50, align 8, !tbaa !193
  br label %51

51:                                               ; preds = %42
  br label %52

52:                                               ; preds = %51
  br label %53

53:                                               ; preds = %52
  %54 = load ptr, ptr @Curl_cfree, align 8, !tbaa !10
  %55 = load ptr, ptr %4, align 8, !tbaa !181
  %56 = getelementptr inbounds nuw %struct.connectdata, ptr %55, i32 0, i32 13
  %57 = getelementptr inbounds nuw %struct.proxy_info, ptr %56, i32 0, i32 4
  %58 = load ptr, ptr %57, align 8, !tbaa !194
  call void %54(ptr noundef %58)
  %59 = load ptr, ptr %4, align 8, !tbaa !181
  %60 = getelementptr inbounds nuw %struct.connectdata, ptr %59, i32 0, i32 13
  %61 = getelementptr inbounds nuw %struct.proxy_info, ptr %60, i32 0, i32 4
  store ptr null, ptr %61, align 8, !tbaa !194
  br label %62

62:                                               ; preds = %53
  br label %63

63:                                               ; preds = %62
  br label %64

64:                                               ; preds = %63
  %65 = load ptr, ptr @Curl_cfree, align 8, !tbaa !10
  %66 = load ptr, ptr %4, align 8, !tbaa !181
  %67 = getelementptr inbounds nuw %struct.connectdata, ptr %66, i32 0, i32 12
  %68 = getelementptr inbounds nuw %struct.proxy_info, ptr %67, i32 0, i32 4
  %69 = load ptr, ptr %68, align 8, !tbaa !195
  call void %65(ptr noundef %69)
  %70 = load ptr, ptr %4, align 8, !tbaa !181
  %71 = getelementptr inbounds nuw %struct.connectdata, ptr %70, i32 0, i32 12
  %72 = getelementptr inbounds nuw %struct.proxy_info, ptr %71, i32 0, i32 4
  store ptr null, ptr %72, align 8, !tbaa !195
  br label %73

73:                                               ; preds = %64
  br label %74

74:                                               ; preds = %73
  br label %75

75:                                               ; preds = %74
  %76 = load ptr, ptr @Curl_cfree, align 8, !tbaa !10
  %77 = load ptr, ptr %4, align 8, !tbaa !181
  %78 = getelementptr inbounds nuw %struct.connectdata, ptr %77, i32 0, i32 13
  %79 = getelementptr inbounds nuw %struct.proxy_info, ptr %78, i32 0, i32 0
  %80 = getelementptr inbounds nuw %struct.hostname, ptr %79, i32 0, i32 0
  %81 = load ptr, ptr %80, align 8, !tbaa !196
  call void %76(ptr noundef %81)
  %82 = load ptr, ptr %4, align 8, !tbaa !181
  %83 = getelementptr inbounds nuw %struct.connectdata, ptr %82, i32 0, i32 13
  %84 = getelementptr inbounds nuw %struct.proxy_info, ptr %83, i32 0, i32 0
  %85 = getelementptr inbounds nuw %struct.hostname, ptr %84, i32 0, i32 0
  store ptr null, ptr %85, align 8, !tbaa !196
  br label %86

86:                                               ; preds = %75
  br label %87

87:                                               ; preds = %86
  br label %88

88:                                               ; preds = %87
  %89 = load ptr, ptr @Curl_cfree, align 8, !tbaa !10
  %90 = load ptr, ptr %4, align 8, !tbaa !181
  %91 = getelementptr inbounds nuw %struct.connectdata, ptr %90, i32 0, i32 12
  %92 = getelementptr inbounds nuw %struct.proxy_info, ptr %91, i32 0, i32 0
  %93 = getelementptr inbounds nuw %struct.hostname, ptr %92, i32 0, i32 0
  %94 = load ptr, ptr %93, align 8, !tbaa !197
  call void %89(ptr noundef %94)
  %95 = load ptr, ptr %4, align 8, !tbaa !181
  %96 = getelementptr inbounds nuw %struct.connectdata, ptr %95, i32 0, i32 12
  %97 = getelementptr inbounds nuw %struct.proxy_info, ptr %96, i32 0, i32 0
  %98 = getelementptr inbounds nuw %struct.hostname, ptr %97, i32 0, i32 0
  store ptr null, ptr %98, align 8, !tbaa !197
  br label %99

99:                                               ; preds = %88
  br label %100

100:                                              ; preds = %99
  br label %101

101:                                              ; preds = %100
  %102 = load ptr, ptr @Curl_cfree, align 8, !tbaa !10
  %103 = load ptr, ptr %4, align 8, !tbaa !181
  %104 = getelementptr inbounds nuw %struct.connectdata, ptr %103, i32 0, i32 16
  %105 = load ptr, ptr %104, align 8, !tbaa !198
  call void %102(ptr noundef %105)
  %106 = load ptr, ptr %4, align 8, !tbaa !181
  %107 = getelementptr inbounds nuw %struct.connectdata, ptr %106, i32 0, i32 16
  store ptr null, ptr %107, align 8, !tbaa !198
  br label %108

108:                                              ; preds = %101
  br label %109

109:                                              ; preds = %108
  br label %110

110:                                              ; preds = %109
  %111 = load ptr, ptr @Curl_cfree, align 8, !tbaa !10
  %112 = load ptr, ptr %4, align 8, !tbaa !181
  %113 = getelementptr inbounds nuw %struct.connectdata, ptr %112, i32 0, i32 17
  %114 = load ptr, ptr %113, align 8, !tbaa !199
  call void %111(ptr noundef %114)
  %115 = load ptr, ptr %4, align 8, !tbaa !181
  %116 = getelementptr inbounds nuw %struct.connectdata, ptr %115, i32 0, i32 17
  store ptr null, ptr %116, align 8, !tbaa !199
  br label %117

117:                                              ; preds = %110
  br label %118

118:                                              ; preds = %117
  br label %119

119:                                              ; preds = %118
  %120 = load ptr, ptr @Curl_cfree, align 8, !tbaa !10
  %121 = load ptr, ptr %4, align 8, !tbaa !181
  %122 = getelementptr inbounds nuw %struct.connectdata, ptr %121, i32 0, i32 19
  %123 = load ptr, ptr %122, align 8, !tbaa !200
  call void %120(ptr noundef %123)
  %124 = load ptr, ptr %4, align 8, !tbaa !181
  %125 = getelementptr inbounds nuw %struct.connectdata, ptr %124, i32 0, i32 19
  store ptr null, ptr %125, align 8, !tbaa !200
  br label %126

126:                                              ; preds = %119
  br label %127

127:                                              ; preds = %126
  br label %128

128:                                              ; preds = %127
  %129 = load ptr, ptr @Curl_cfree, align 8, !tbaa !10
  %130 = load ptr, ptr %4, align 8, !tbaa !181
  %131 = getelementptr inbounds nuw %struct.connectdata, ptr %130, i32 0, i32 18
  %132 = load ptr, ptr %131, align 8, !tbaa !201
  call void %129(ptr noundef %132)
  %133 = load ptr, ptr %4, align 8, !tbaa !181
  %134 = getelementptr inbounds nuw %struct.connectdata, ptr %133, i32 0, i32 18
  store ptr null, ptr %134, align 8, !tbaa !201
  br label %135

135:                                              ; preds = %128
  br label %136

136:                                              ; preds = %135
  br label %137

137:                                              ; preds = %136
  %138 = load ptr, ptr @Curl_cfree, align 8, !tbaa !10
  %139 = load ptr, ptr %4, align 8, !tbaa !181
  %140 = getelementptr inbounds nuw %struct.connectdata, ptr %139, i32 0, i32 20
  %141 = load ptr, ptr %140, align 8, !tbaa !202
  call void %138(ptr noundef %141)
  %142 = load ptr, ptr %4, align 8, !tbaa !181
  %143 = getelementptr inbounds nuw %struct.connectdata, ptr %142, i32 0, i32 20
  store ptr null, ptr %143, align 8, !tbaa !202
  br label %144

144:                                              ; preds = %137
  br label %145

145:                                              ; preds = %144
  br label %146

146:                                              ; preds = %145
  %147 = load ptr, ptr @Curl_cfree, align 8, !tbaa !10
  %148 = load ptr, ptr %4, align 8, !tbaa !181
  %149 = getelementptr inbounds nuw %struct.connectdata, ptr %148, i32 0, i32 8
  %150 = getelementptr inbounds nuw %struct.hostname, ptr %149, i32 0, i32 0
  %151 = load ptr, ptr %150, align 8, !tbaa !203
  call void %147(ptr noundef %151)
  %152 = load ptr, ptr %4, align 8, !tbaa !181
  %153 = getelementptr inbounds nuw %struct.connectdata, ptr %152, i32 0, i32 8
  %154 = getelementptr inbounds nuw %struct.hostname, ptr %153, i32 0, i32 0
  store ptr null, ptr %154, align 8, !tbaa !203
  br label %155

155:                                              ; preds = %146
  br label %156

156:                                              ; preds = %155
  br label %157

157:                                              ; preds = %156
  %158 = load ptr, ptr @Curl_cfree, align 8, !tbaa !10
  %159 = load ptr, ptr %4, align 8, !tbaa !181
  %160 = getelementptr inbounds nuw %struct.connectdata, ptr %159, i32 0, i32 11
  %161 = getelementptr inbounds nuw %struct.hostname, ptr %160, i32 0, i32 0
  %162 = load ptr, ptr %161, align 8, !tbaa !204
  call void %158(ptr noundef %162)
  %163 = load ptr, ptr %4, align 8, !tbaa !181
  %164 = getelementptr inbounds nuw %struct.connectdata, ptr %163, i32 0, i32 11
  %165 = getelementptr inbounds nuw %struct.hostname, ptr %164, i32 0, i32 0
  store ptr null, ptr %165, align 8, !tbaa !204
  br label %166

166:                                              ; preds = %157
  br label %167

167:                                              ; preds = %166
  br label %168

168:                                              ; preds = %167
  %169 = load ptr, ptr @Curl_cfree, align 8, !tbaa !10
  %170 = load ptr, ptr %4, align 8, !tbaa !181
  %171 = getelementptr inbounds nuw %struct.connectdata, ptr %170, i32 0, i32 9
  %172 = load ptr, ptr %171, align 8, !tbaa !205
  call void %169(ptr noundef %172)
  %173 = load ptr, ptr %4, align 8, !tbaa !181
  %174 = getelementptr inbounds nuw %struct.connectdata, ptr %173, i32 0, i32 9
  store ptr null, ptr %174, align 8, !tbaa !205
  br label %175

175:                                              ; preds = %168
  br label %176

176:                                              ; preds = %175
  br label %177

177:                                              ; preds = %176
  %178 = load ptr, ptr @Curl_cfree, align 8, !tbaa !10
  %179 = load ptr, ptr %4, align 8, !tbaa !181
  %180 = getelementptr inbounds nuw %struct.connectdata, ptr %179, i32 0, i32 10
  %181 = load ptr, ptr %180, align 8, !tbaa !206
  call void %178(ptr noundef %181)
  %182 = load ptr, ptr %4, align 8, !tbaa !181
  %183 = getelementptr inbounds nuw %struct.connectdata, ptr %182, i32 0, i32 10
  store ptr null, ptr %183, align 8, !tbaa !206
  br label %184

184:                                              ; preds = %177
  br label %185

185:                                              ; preds = %184
  br label %186

186:                                              ; preds = %185
  %187 = load ptr, ptr @Curl_cfree, align 8, !tbaa !10
  %188 = load ptr, ptr %4, align 8, !tbaa !181
  %189 = getelementptr inbounds nuw %struct.connectdata, ptr %188, i32 0, i32 45
  %190 = load ptr, ptr %189, align 8, !tbaa !207
  call void %187(ptr noundef %190)
  %191 = load ptr, ptr %4, align 8, !tbaa !181
  %192 = getelementptr inbounds nuw %struct.connectdata, ptr %191, i32 0, i32 45
  store ptr null, ptr %192, align 8, !tbaa !207
  br label %193

193:                                              ; preds = %186
  br label %194

194:                                              ; preds = %193
  %195 = load ptr, ptr %4, align 8, !tbaa !181
  call void @Curl_ssl_conn_config_cleanup(ptr noundef %195)
  br label %196

196:                                              ; preds = %194
  %197 = load ptr, ptr @Curl_cfree, align 8, !tbaa !10
  %198 = load ptr, ptr %4, align 8, !tbaa !181
  %199 = getelementptr inbounds nuw %struct.connectdata, ptr %198, i32 0, i32 44
  %200 = load ptr, ptr %199, align 8, !tbaa !208
  call void %197(ptr noundef %200)
  %201 = load ptr, ptr %4, align 8, !tbaa !181
  %202 = getelementptr inbounds nuw %struct.connectdata, ptr %201, i32 0, i32 44
  store ptr null, ptr %202, align 8, !tbaa !208
  br label %203

203:                                              ; preds = %196
  br label %204

204:                                              ; preds = %203
  br label %205

205:                                              ; preds = %204
  %206 = load ptr, ptr @Curl_cfree, align 8, !tbaa !10
  %207 = load ptr, ptr %4, align 8, !tbaa !181
  %208 = getelementptr inbounds nuw %struct.connectdata, ptr %207, i32 0, i32 4
  %209 = load ptr, ptr %208, align 8, !tbaa !209
  call void %206(ptr noundef %209)
  %210 = load ptr, ptr %4, align 8, !tbaa !181
  %211 = getelementptr inbounds nuw %struct.connectdata, ptr %210, i32 0, i32 4
  store ptr null, ptr %211, align 8, !tbaa !209
  br label %212

212:                                              ; preds = %205
  br label %213

213:                                              ; preds = %212
  %214 = load ptr, ptr @Curl_cfree, align 8, !tbaa !10
  %215 = load ptr, ptr %4, align 8, !tbaa !181
  call void %214(ptr noundef %215)
  call void @llvm.lifetime.end.p0(i64 8, ptr %5) #8
  ret void
}