; Function Attrs: nounwind uwtable
define hidden void @Curl_conn_free(ptr noundef %0, ptr noundef %1) local_unnamed_addr #0 {
.critedge:
  tail call void @Curl_conn_cf_discard_all(ptr noundef %0, ptr noundef %1, i32 noundef 0) #11
  tail call void @Curl_conn_cf_discard_all(ptr noundef %0, ptr noundef %1, i32 noundef 1) #11
  %2 = getelementptr inbounds nuw i8, ptr %1, i64 88
  tail call void @Curl_free_idnconverted_hostname(ptr noundef nonnull %2) #11
  %3 = getelementptr inbounds nuw i8, ptr %1, i64 136
  tail call void @Curl_free_idnconverted_hostname(ptr noundef nonnull %3) #11
  %4 = getelementptr inbounds nuw i8, ptr %1, i64 224
  tail call void @Curl_free_idnconverted_hostname(ptr noundef nonnull %4) #11
  %5 = getelementptr inbounds nuw i8, ptr %1, i64 168
  tail call void @Curl_free_idnconverted_hostname(ptr noundef nonnull %5) #11
  %6 = load ptr, ptr @Curl_cfree, align 8, !tbaa !3
  %7 = getelementptr inbounds nuw i8, ptr %1, i64 264
  %8 = load ptr, ptr %7, align 8, !tbaa !167
  tail call void %6(ptr noundef %8) #11
  store ptr null, ptr %7, align 8, !tbaa !167
  %9 = load ptr, ptr @Curl_cfree, align 8, !tbaa !3
  %10 = getelementptr inbounds nuw i8, ptr %1, i64 208
  %11 = load ptr, ptr %10, align 8, !tbaa !176
  tail call void %9(ptr noundef %11) #11
  store ptr null, ptr %10, align 8, !tbaa !176
  %12 = load ptr, ptr @Curl_cfree, align 8, !tbaa !3
  %13 = getelementptr inbounds nuw i8, ptr %1, i64 272
  %14 = load ptr, ptr %13, align 8, !tbaa !177
  tail call void %12(ptr noundef %14) #11
  store ptr null, ptr %13, align 8, !tbaa !177
  %15 = load ptr, ptr @Curl_cfree, align 8, !tbaa !3
  %16 = getelementptr inbounds nuw i8, ptr %1, i64 216
  %17 = load ptr, ptr %16, align 8, !tbaa !178
  tail call void %15(ptr noundef %17) #11
  store ptr null, ptr %16, align 8, !tbaa !178
  %18 = load ptr, ptr @Curl_cfree, align 8, !tbaa !3
  %19 = load ptr, ptr %4, align 8, !tbaa !179
  tail call void %18(ptr noundef %19) #11
  store ptr null, ptr %4, align 8, !tbaa !179
  %20 = load ptr, ptr @Curl_cfree, align 8, !tbaa !3
  %21 = load ptr, ptr %5, align 8, !tbaa !180
  tail call void %20(ptr noundef %21) #11
  store ptr null, ptr %5, align 8, !tbaa !180
  %22 = load ptr, ptr @Curl_cfree, align 8, !tbaa !3
  %23 = getelementptr inbounds nuw i8, ptr %1, i64 480
  %24 = load ptr, ptr %23, align 8, !tbaa !181
  tail call void %22(ptr noundef %24) #11
  store ptr null, ptr %23, align 8, !tbaa !181
  %25 = load ptr, ptr @Curl_cfree, align 8, !tbaa !3
  %26 = getelementptr inbounds nuw i8, ptr %1, i64 488
  %27 = load ptr, ptr %26, align 8, !tbaa !182
  tail call void %25(ptr noundef %27) #11
  store ptr null, ptr %26, align 8, !tbaa !182
  %28 = load ptr, ptr @Curl_cfree, align 8, !tbaa !3
  %29 = getelementptr inbounds nuw i8, ptr %1, i64 504
  %30 = load ptr, ptr %29, align 8, !tbaa !183
  tail call void %28(ptr noundef %30) #11
  store ptr null, ptr %29, align 8, !tbaa !183
  %31 = load ptr, ptr @Curl_cfree, align 8, !tbaa !3
  %32 = getelementptr inbounds nuw i8, ptr %1, i64 496
  %33 = load ptr, ptr %32, align 8, !tbaa !184
  tail call void %31(ptr noundef %33) #11
  store ptr null, ptr %32, align 8, !tbaa !184
  %34 = load ptr, ptr @Curl_cfree, align 8, !tbaa !3
  %35 = getelementptr inbounds nuw i8, ptr %1, i64 512
  %36 = load ptr, ptr %35, align 8, !tbaa !185
  tail call void %34(ptr noundef %36) #11
  store ptr null, ptr %35, align 8, !tbaa !185
  %37 = load ptr, ptr @Curl_cfree, align 8, !tbaa !3
  %38 = load ptr, ptr %2, align 8, !tbaa !186
  tail call void %37(ptr noundef %38) #11
  store ptr null, ptr %2, align 8, !tbaa !186
  %39 = load ptr, ptr @Curl_cfree, align 8, !tbaa !3
  %40 = load ptr, ptr %3, align 8, !tbaa !187
  tail call void %39(ptr noundef %40) #11
  store ptr null, ptr %3, align 8, !tbaa !187
  %41 = load ptr, ptr @Curl_cfree, align 8, !tbaa !3
  %42 = getelementptr inbounds nuw i8, ptr %1, i64 120
  %43 = load ptr, ptr %42, align 8, !tbaa !188
  tail call void %41(ptr noundef %43) #11
  store ptr null, ptr %42, align 8, !tbaa !188
  %44 = load ptr, ptr @Curl_cfree, align 8, !tbaa !3
  %45 = getelementptr inbounds nuw i8, ptr %1, i64 128
  %46 = load ptr, ptr %45, align 8, !tbaa !189
  tail call void %44(ptr noundef %46) #11
  store ptr null, ptr %45, align 8, !tbaa !189
  %47 = load ptr, ptr @Curl_cfree, align 8, !tbaa !3
  %48 = getelementptr inbounds nuw i8, ptr %1, i64 1376
  %49 = load ptr, ptr %48, align 8, !tbaa !190
  tail call void %47(ptr noundef %49) #11
  store ptr null, ptr %48, align 8, !tbaa !190
  tail call void @Curl_ssl_conn_config_cleanup(ptr noundef %1) #11
  %50 = load ptr, ptr @Curl_cfree, align 8, !tbaa !3
  %51 = getelementptr inbounds nuw i8, ptr %1, i64 1368
  %52 = load ptr, ptr %51, align 8, !tbaa !191
  tail call void %50(ptr noundef %52) #11
  store ptr null, ptr %51, align 8, !tbaa !191
  %53 = load ptr, ptr @Curl_cfree, align 8, !tbaa !3
  %54 = getelementptr inbounds nuw i8, ptr %1, i64 56
  %55 = load ptr, ptr %54, align 8, !tbaa !192
  tail call void %53(ptr noundef %55) #11
  store ptr null, ptr %54, align 8, !tbaa !192
  %56 = load ptr, ptr @Curl_cfree, align 8, !tbaa !3
  tail call void %56(ptr noundef %1) #11
  ret void
}